    .section    __TEXT,__text,regular,pure_instructions
    .ios_version_min 8, 0    sdk_version 13, 2
    .file    1 "/Users/patch/iOS-GSDemo" "GSDemo/DJIWaypointConfigViewController.h"
    .file    2 "/Users/patch/iOS-GSDemo" "GSDemo/GSDemo-pch.pch"
    .p2align    2               ; -- Begin function -[DJIWaypointConfigViewController viewDidLoad]
"-[DJIWaypointConfigViewController viewDidLoad]": ; @"\01-[DJIWaypointConfigViewController viewDidLoad]"
Lfunc_begin0:
    .file    3 "/Users/patch/iOS-GSDemo" "GSDemo/DJIWaypointConfigViewController.m"
    .loc    3 17 0                  ; GSDemo/DJIWaypointConfigViewController.m:17:0
    .cfi_startproc
; %bb.0:
    sub    sp, sp, #48             ; =48
    stp    x29, x30, [sp, #32]     ; 16-byte Folded Spill
    add    x29, sp, #32            ; =32
    .cfi_def_cfa w29, 16
    .cfi_offset w30, -8
    .cfi_offset w29, -16
    adrp    x8, l_OBJC_SELECTOR_REFERENCES_@PAGE
    add    x8, x8, l_OBJC_SELECTOR_REFERENCES_@PAGEOFF
    adrp    x9, l_OBJC_CLASSLIST_SUP_REFS_$_@PAGE
    add    x9, x9, l_OBJC_CLASSLIST_SUP_REFS_$_@PAGEOFF
    stur    x0, [x29, #-8]
    str    x1, [sp, #16]
Ltmp0:
    .loc    3 18 5 prologue_end     ; GSDemo/DJIWaypointConfigViewController.m:18:5
    ldur    x0, [x29, #-8]
    str    x0, [sp]
    ldr    x9, [x9]
    str    x9, [sp, #8]
    ldr    x1, [x8]
    mov    x0, sp
    bl    _objc_msgSendSuper2
    adrp    x8, l_OBJC_SELECTOR_REFERENCES_.2@PAGE
    add    x8, x8, l_OBJC_SELECTOR_REFERENCES_.2@PAGEOFF
    .loc    3 20 6                  ; GSDemo/DJIWaypointConfigViewController.m:20:6
    ldur    x9, [x29, #-8]
    .loc    3 20 5 is_stmt 0        ; GSDemo/DJIWaypointConfigViewController.m:20:5
    ldr    x1, [x8]
    mov    x0, x9
    bl    _objc_msgSend
    .loc    3 22 1 is_stmt 1        ; GSDemo/DJIWaypointConfigViewController.m:22:1
    ldp    x29, x30, [sp, #32]     ; 16-byte Folded Reload
    add    sp, sp, #48             ; =48
    ret
Ltmp1:
Lfunc_end0:
    .cfi_endproc
                                        ; -- End function
    .p2align    2               ; -- Begin function -[DJIWaypointConfigViewController didReceiveMemoryWarning]
"-[DJIWaypointConfigViewController didReceiveMemoryWarning]": ; @"\01-[DJIWaypointConfigViewController didReceiveMemoryWarning]"
Lfunc_begin1:
    .loc    3 24 0                  ; GSDemo/DJIWaypointConfigViewController.m:24:0
    .cfi_startproc
; %bb.0:
    sub    sp, sp, #48             ; =48
    stp    x29, x30, [sp, #32]     ; 16-byte Folded Spill
    add    x29, sp, #32            ; =32
    .cfi_def_cfa w29, 16
    .cfi_offset w30, -8
    .cfi_offset w29, -16
    adrp    x8, l_OBJC_SELECTOR_REFERENCES_.4@PAGE
    add    x8, x8, l_OBJC_SELECTOR_REFERENCES_.4@PAGEOFF
    adrp    x9, l_OBJC_CLASSLIST_SUP_REFS_$_@PAGE
    add    x9, x9, l_OBJC_CLASSLIST_SUP_REFS_$_@PAGEOFF
    stur    x0, [x29, #-8]
    str    x1, [sp, #16]
Ltmp2:
    .loc    3 25 5 prologue_end     ; GSDemo/DJIWaypointConfigViewController.m:25:5
    ldur    x0, [x29, #-8]
    str    x0, [sp]
    ldr    x9, [x9]
    str    x9, [sp, #8]
    ldr    x1, [x8]
    mov    x0, sp
    bl    _objc_msgSendSuper2
    .loc    3 27 1                  ; GSDemo/DJIWaypointConfigViewController.m:27:1
    ldp    x29, x30, [sp, #32]     ; 16-byte Folded Reload
    add    sp, sp, #48             ; =48
    ret
Ltmp3:
Lfunc_end1:
    .cfi_endproc
                                        ; -- End function
    .p2align    2               ; -- Begin function -[DJIWaypointConfigViewController initUI]
"-[DJIWaypointConfigViewController initUI]": ; @"\01-[DJIWaypointConfigViewController initUI]"
Lfunc_begin2:
    .loc    3 29 0                  ; GSDemo/DJIWaypointConfigViewController.m:29:0
    .cfi_startproc
; %bb.0:
    sub    sp, sp, #80             ; =80
    stp    x29, x30, [sp, #64]     ; 16-byte Folded Spill
    add    x29, sp, #64            ; =64
    .cfi_def_cfa w29, 16
    .cfi_offset w30, -8
    .cfi_offset w29, -16
    adrp    x8, l_OBJC_SELECTOR_REFERENCES_.6@PAGE
    add    x8, x8, l_OBJC_SELECTOR_REFERENCES_.6@PAGEOFF
    stur    x0, [x29, #-8]
    stur    x1, [x29, #-16]
Ltmp4:
    .loc    3 31 5 prologue_end     ; GSDemo/DJIWaypointConfigViewController.m:31:5
    ldur    x0, [x29, #-8]
    .loc    3 31 10 is_stmt 0       ; GSDemo/DJIWaypointConfigViewController.m:31:10
    ldr    x1, [x8]
    bl    _objc_msgSend
    ; InlineAsm Start
    mov    x29, x29    ; marker for objc_retainAutoreleaseReturnValue
    ; InlineAsm End
    bl    _objc_retainAutoreleasedReturnValue
    adrp    x8, l__unnamed_cfstring_@PAGE
    add    x8, x8, l__unnamed_cfstring_@PAGEOFF
    adrp    x1, l_OBJC_SELECTOR_REFERENCES_.8@PAGE
    add    x1, x1, l_OBJC_SELECTOR_REFERENCES_.8@PAGEOFF
    .loc    3 31 28                 ; GSDemo/DJIWaypointConfigViewController.m:31:28
    ldr    x1, [x1]
    mov    x30, x0
    stur    x0, [x29, #-24]         ; 8-byte Folded Spill
    mov    x0, x30
    mov    x2, x8
    bl    _objc_msgSend
    ldur    x0, [x29, #-24]         ; 8-byte Folded Reload
    .loc    3 31 5                  ; GSDemo/DJIWaypointConfigViewController.m:31:5
    bl    _objc_release
    adrp    x8, l_OBJC_SELECTOR_REFERENCES_.12@PAGE
    add    x8, x8, l_OBJC_SELECTOR_REFERENCES_.12@PAGEOFF
    .loc    3 32 5 is_stmt 1        ; GSDemo/DJIWaypointConfigViewController.m:32:5
    ldur    x0, [x29, #-8]
    .loc    3 32 10 is_stmt 0       ; GSDemo/DJIWaypointConfigViewController.m:32:10
    ldr    x1, [x8]
    bl    _objc_msgSend
    ; InlineAsm Start
    mov    x29, x29    ; marker for objc_retainAutoreleaseReturnValue
    ; InlineAsm End
    bl    _objc_retainAutoreleasedReturnValue
    adrp    x8, l__unnamed_cfstring_.10@PAGE
    add    x8, x8, l__unnamed_cfstring_.10@PAGEOFF
    adrp    x1, l_OBJC_SELECTOR_REFERENCES_.8@PAGE
    add    x1, x1, l_OBJC_SELECTOR_REFERENCES_.8@PAGEOFF
    .loc    3 32 35                 ; GSDemo/DJIWaypointConfigViewController.m:32:35
    ldr    x1, [x1]
    mov    x2, x0
    str    x0, [sp, #32]           ; 8-byte Folded Spill
    mov    x0, x2
    mov    x2, x8
    bl    _objc_msgSend
    ldr    x0, [sp, #32]           ; 8-byte Folded Reload
    .loc    3 32 5                  ; GSDemo/DJIWaypointConfigViewController.m:32:5
    bl    _objc_release
    adrp    x8, l_OBJC_SELECTOR_REFERENCES_.16@PAGE
    add    x8, x8, l_OBJC_SELECTOR_REFERENCES_.16@PAGEOFF
    .loc    3 33 5 is_stmt 1        ; GSDemo/DJIWaypointConfigViewController.m:33:5
    ldur    x0, [x29, #-8]
    .loc    3 33 10 is_stmt 0       ; GSDemo/DJIWaypointConfigViewController.m:33:10
    ldr    x1, [x8]
    bl    _objc_msgSend
    ; InlineAsm Start
    mov    x29, x29    ; marker for objc_retainAutoreleaseReturnValue
    ; InlineAsm End
    bl    _objc_retainAutoreleasedReturnValue
    adrp    x8, l__unnamed_cfstring_.14@PAGE
    add    x8, x8, l__unnamed_cfstring_.14@PAGEOFF
    adrp    x1, l_OBJC_SELECTOR_REFERENCES_.8@PAGE
    add    x1, x1, l_OBJC_SELECTOR_REFERENCES_.8@PAGEOFF
    .loc    3 33 34                 ; GSDemo/DJIWaypointConfigViewController.m:33:34
    ldr    x1, [x1]
    mov    x2, x0
    str    x0, [sp, #24]           ; 8-byte Folded Spill
    mov    x0, x2
    mov    x2, x8
    bl    _objc_msgSend
    ldr    x0, [sp, #24]           ; 8-byte Folded Reload
    .loc    3 33 5                  ; GSDemo/DJIWaypointConfigViewController.m:33:5
    bl    _objc_release
    adrp    x8, l_OBJC_SELECTOR_REFERENCES_.18@PAGE
    add    x8, x8, l_OBJC_SELECTOR_REFERENCES_.18@PAGEOFF
    .loc    3 34 6 is_stmt 1        ; GSDemo/DJIWaypointConfigViewController.m:34:6
    ldur    x0, [x29, #-8]
    .loc    3 34 11 is_stmt 0       ; GSDemo/DJIWaypointConfigViewController.m:34:11
    ldr    x1, [x8]
    bl    _objc_msgSend
    ; InlineAsm Start
    mov    x29, x29    ; marker for objc_retainAutoreleaseReturnValue
    ; InlineAsm End
    bl    _objc_retainAutoreleasedReturnValue
    adrp    x8, l_OBJC_SELECTOR_REFERENCES_.20@PAGE
    add    x8, x8, l_OBJC_SELECTOR_REFERENCES_.20@PAGEOFF
    .loc    3 34 5                  ; GSDemo/DJIWaypointConfigViewController.m:34:5
    ldr    x1, [x8]
    mov    x2, x0
    str    x0, [sp, #16]           ; 8-byte Folded Spill
    mov    x0, x2
    orr    x2, xzr, #0x1
    bl    _objc_msgSend
    ldr    x0, [sp, #16]           ; 8-byte Folded Reload
    bl    _objc_release
    adrp    x8, l_OBJC_SELECTOR_REFERENCES_.22@PAGE
    add    x8, x8, l_OBJC_SELECTOR_REFERENCES_.22@PAGEOFF
    .loc    3 35 6 is_stmt 1        ; GSDemo/DJIWaypointConfigViewController.m:35:6
    ldur    x0, [x29, #-8]
    .loc    3 35 11 is_stmt 0       ; GSDemo/DJIWaypointConfigViewController.m:35:11
    ldr    x1, [x8]
    bl    _objc_msgSend
    ; InlineAsm Start
    mov    x29, x29    ; marker for objc_retainAutoreleaseReturnValue
    ; InlineAsm End
    bl    _objc_retainAutoreleasedReturnValue
    adrp    x8, l_OBJC_SELECTOR_REFERENCES_.20@PAGE
    add    x8, x8, l_OBJC_SELECTOR_REFERENCES_.20@PAGEOFF
    .loc    3 35 5                  ; GSDemo/DJIWaypointConfigViewController.m:35:5
    ldr    x1, [x8]
    mov    x2, x0
    str    x0, [sp, #8]            ; 8-byte Folded Spill
    mov    x0, x2
    mov    x8, #0
    mov    x2, x8
    bl    _objc_msgSend
    ldr    x0, [sp, #8]            ; 8-byte Folded Reload
    bl    _objc_release
    .loc    3 37 1 is_stmt 1        ; GSDemo/DJIWaypointConfigViewController.m:37:1
    ldp    x29, x30, [sp, #64]     ; 16-byte Folded Reload
    add    sp, sp, #80             ; =80
    ret
Ltmp5:
Lfunc_end2:
    .cfi_endproc
                                        ; -- End function
    .p2align    2               ; -- Begin function -[DJIWaypointConfigViewController cancelBtnAction:]
"-[DJIWaypointConfigViewController cancelBtnAction:]": ; @"\01-[DJIWaypointConfigViewController cancelBtnAction:]"
Lfunc_begin3:
    .loc    3 39 0                  ; GSDemo/DJIWaypointConfigViewController.m:39:0
    .cfi_startproc
; %bb.0:
    sub    sp, sp, #64             ; =64
    stp    x29, x30, [sp, #48]     ; 16-byte Folded Spill
    add    x29, sp, #48            ; =48
    .cfi_def_cfa w29, 16
    .cfi_offset w30, -8
    .cfi_offset w29, -16
    stur    x0, [x29, #-8]
    stur    x1, [x29, #-16]
    mov    x0, #0
    str    x0, [sp, #24]
    add    x0, sp, #24             ; =24
    mov    x1, x2
    bl    _objc_storeStrong
    adrp    x0, _OBJC_IVAR_$_DJIWaypointConfigViewController._delegate@PAGE
    add    x0, x0, _OBJC_IVAR_$_DJIWaypointConfigViewController._delegate@PAGEOFF
Ltmp6:
    .loc    3 0 0 prologue_end      ; GSDemo/DJIWaypointConfigViewController.m:0:0
    ldur    x1, [x29, #-8]
    .loc    3 41 10                 ; GSDemo/DJIWaypointConfigViewController.m:41:10
    ldrsw    x0, [x0]
    add    x0, x1, x0
    bl    _objc_loadWeakRetained
    adrp    x1, l_OBJC_SELECTOR_REFERENCES_.26@PAGE
    add    x1, x1, l_OBJC_SELECTOR_REFERENCES_.26@PAGEOFF
    adrp    x2, l_OBJC_SELECTOR_REFERENCES_.24@PAGE
    add    x2, x2, l_OBJC_SELECTOR_REFERENCES_.24@PAGEOFF
    .loc    3 41 39 is_stmt 0       ; GSDemo/DJIWaypointConfigViewController.m:41:39
    ldr    x2, [x2]
    .loc    3 41 9                  ; GSDemo/DJIWaypointConfigViewController.m:41:9
    ldr    x1, [x1]
    str    x0, [sp, #16]           ; 8-byte Folded Spill
    bl    _objc_msgSend
    ldr    x1, [sp, #16]           ; 8-byte Folded Reload
    str    w0, [sp, #12]           ; 4-byte Folded Spill
    mov    x0, x1
    bl    _objc_release
    ldr    w8, [sp, #12]           ; 4-byte Folded Reload
Ltmp7:
    .loc    3 41 9                  ; GSDemo/DJIWaypointConfigViewController.m:41:9
    tbz    w8, #0, LBB3_2
; %bb.1:
    .loc    3 0 9                   ; GSDemo/DJIWaypointConfigViewController.m:0:9
    adrp    x8, _OBJC_IVAR_$_DJIWaypointConfigViewController._delegate@PAGE
    add    x8, x8, _OBJC_IVAR_$_DJIWaypointConfigViewController._delegate@PAGEOFF
Ltmp8:
    ldur    x9, [x29, #-8]
    .loc    3 42 10 is_stmt 1       ; GSDemo/DJIWaypointConfigViewController.m:42:10
    ldrsw    x8, [x8]
    add    x8, x9, x8
    mov    x0, x8
    bl    _objc_loadWeakRetained
    adrp    x8, l_OBJC_SELECTOR_REFERENCES_.24@PAGE
    add    x8, x8, l_OBJC_SELECTOR_REFERENCES_.24@PAGEOFF
    .loc    3 42 69 is_stmt 0       ; GSDemo/DJIWaypointConfigViewController.m:42:69
    ldur    x2, [x29, #-8]
    .loc    3 42 9                  ; GSDemo/DJIWaypointConfigViewController.m:42:9
    ldr    x1, [x8]
    str    x0, [sp]                ; 8-byte Folded Spill
    bl    _objc_msgSend
    ldr    x0, [sp]                ; 8-byte Folded Reload
    bl    _objc_release
Ltmp9:
LBB3_2:
    .loc    3 44 1 is_stmt 1        ; GSDemo/DJIWaypointConfigViewController.m:44:1
    add    x0, sp, #24             ; =24
    mov    x8, #0
    mov    x1, x8
    bl    _objc_storeStrong
    ldp    x29, x30, [sp, #48]     ; 16-byte Folded Reload
    add    sp, sp, #64             ; =64
    ret
Ltmp10:
Lfunc_end3:
    .cfi_endproc
                                        ; -- End function
    .p2align    2               ; -- Begin function -[DJIWaypointConfigViewController finishBtnAction:]
"-[DJIWaypointConfigViewController finishBtnAction:]": ; @"\01-[DJIWaypointConfigViewController finishBtnAction:]"
Lfunc_begin4:
    .loc    3 46 0                  ; GSDemo/DJIWaypointConfigViewController.m:46:0
    .cfi_startproc
; %bb.0:
    sub    sp, sp, #64             ; =64
    stp    x29, x30, [sp, #48]     ; 16-byte Folded Spill
    add    x29, sp, #48            ; =48
    .cfi_def_cfa w29, 16
    .cfi_offset w30, -8
    .cfi_offset w29, -16
    stur    x0, [x29, #-8]
    stur    x1, [x29, #-16]
    mov    x0, #0
    str    x0, [sp, #24]
    add    x0, sp, #24             ; =24
    mov    x1, x2
    bl    _objc_storeStrong
    adrp    x0, _OBJC_IVAR_$_DJIWaypointConfigViewController._delegate@PAGE
    add    x0, x0, _OBJC_IVAR_$_DJIWaypointConfigViewController._delegate@PAGEOFF
Ltmp11:
    .loc    3 0 0 prologue_end      ; GSDemo/DJIWaypointConfigViewController.m:0:0
    ldur    x1, [x29, #-8]
    .loc    3 48 10                 ; GSDemo/DJIWaypointConfigViewController.m:48:10
    ldrsw    x0, [x0]
    add    x0, x1, x0
    bl    _objc_loadWeakRetained
    adrp    x1, l_OBJC_SELECTOR_REFERENCES_.26@PAGE
    add    x1, x1, l_OBJC_SELECTOR_REFERENCES_.26@PAGEOFF
    adrp    x2, l_OBJC_SELECTOR_REFERENCES_.28@PAGE
    add    x2, x2, l_OBJC_SELECTOR_REFERENCES_.28@PAGEOFF
    .loc    3 48 39 is_stmt 0       ; GSDemo/DJIWaypointConfigViewController.m:48:39
    ldr    x2, [x2]
    .loc    3 48 9                  ; GSDemo/DJIWaypointConfigViewController.m:48:9
    ldr    x1, [x1]
    str    x0, [sp, #16]           ; 8-byte Folded Spill
    bl    _objc_msgSend
    ldr    x1, [sp, #16]           ; 8-byte Folded Reload
    str    w0, [sp, #12]           ; 4-byte Folded Spill
    mov    x0, x1
    bl    _objc_release
    ldr    w8, [sp, #12]           ; 4-byte Folded Reload
Ltmp12:
    .loc    3 48 9                  ; GSDemo/DJIWaypointConfigViewController.m:48:9
    tbz    w8, #0, LBB4_2
; %bb.1:
    .loc    3 0 9                   ; GSDemo/DJIWaypointConfigViewController.m:0:9
    adrp    x8, _OBJC_IVAR_$_DJIWaypointConfigViewController._delegate@PAGE
    add    x8, x8, _OBJC_IVAR_$_DJIWaypointConfigViewController._delegate@PAGEOFF
Ltmp13:
    ldur    x9, [x29, #-8]
    .loc    3 49 10 is_stmt 1       ; GSDemo/DJIWaypointConfigViewController.m:49:10
    ldrsw    x8, [x8]
    add    x8, x9, x8
    mov    x0, x8
    bl    _objc_loadWeakRetained
    adrp    x8, l_OBJC_SELECTOR_REFERENCES_.28@PAGE
    add    x8, x8, l_OBJC_SELECTOR_REFERENCES_.28@PAGEOFF
    .loc    3 49 69 is_stmt 0       ; GSDemo/DJIWaypointConfigViewController.m:49:69
    ldur    x2, [x29, #-8]
    .loc    3 49 9                  ; GSDemo/DJIWaypointConfigViewController.m:49:9
    ldr    x1, [x8]
    str    x0, [sp]                ; 8-byte Folded Spill
    bl    _objc_msgSend
    ldr    x0, [sp]                ; 8-byte Folded Reload
    bl    _objc_release
Ltmp14:
LBB4_2:
    .loc    3 52 1 is_stmt 1        ; GSDemo/DJIWaypointConfigViewController.m:52:1
    add    x0, sp, #24             ; =24
    mov    x8, #0
    mov    x1, x8
    bl    _objc_storeStrong
    ldp    x29, x30, [sp, #48]     ; 16-byte Folded Reload
    add    sp, sp, #64             ; =64
    ret
Ltmp15:
Lfunc_end4:
    .cfi_endproc
                                        ; -- End function
    .p2align    2               ; -- Begin function -[DJIWaypointConfigViewController altitudeTextField]
"-[DJIWaypointConfigViewController altitudeTextField]": ; @"\01-[DJIWaypointConfigViewController altitudeTextField]"
Lfunc_begin5:
    .loc    1 22 0                  ; GSDemo/DJIWaypointConfigViewController.h:22:0
    .cfi_startproc
; %bb.0:
    sub    sp, sp, #32             ; =32
    stp    x29, x30, [sp, #16]     ; 16-byte Folded Spill
    add    x29, sp, #16            ; =16
    .cfi_def_cfa w29, 16
    .cfi_offset w30, -8
    .cfi_offset w29, -16
    str    x0, [sp, #8]
    str    x1, [sp]
Ltmp16:
    .loc    1 22 51 prologue_end    ; GSDemo/DJIWaypointConfigViewController.h:22:51
    ldr    x0, [sp, #8]
    adrp    x1, _OBJC_IVAR_$_DJIWaypointConfigViewController._altitudeTextField@PAGE
    ldrsw    x1, [x1, _OBJC_IVAR_$_DJIWaypointConfigViewController._altitudeTextField@PAGEOFF]
    add    x0, x0, x1
    bl    _objc_loadWeakRetained
    ldp    x29, x30, [sp, #16]     ; 16-byte Folded Reload
    add    sp, sp, #32             ; =32
    b    _objc_autoreleaseReturnValue
Ltmp17:
Lfunc_end5:
    .cfi_endproc
                                        ; -- End function
    .p2align    2               ; -- Begin function -[DJIWaypointConfigViewController setAltitudeTextField:]
"-[DJIWaypointConfigViewController setAltitudeTextField:]": ; @"\01-[DJIWaypointConfigViewController setAltitudeTextField:]"
Lfunc_begin6:
    .loc    1 22 0                  ; GSDemo/DJIWaypointConfigViewController.h:22:0
    .cfi_startproc
; %bb.0:
    sub    sp, sp, #64             ; =64
    stp    x29, x30, [sp, #48]     ; 16-byte Folded Spill
    add    x29, sp, #48            ; =48
    .cfi_def_cfa w29, 16
    .cfi_offset w30, -8
    .cfi_offset w29, -16
    adrp    x8, _OBJC_IVAR_$_DJIWaypointConfigViewController._altitudeTextField@PAGE
    add    x8, x8, _OBJC_IVAR_$_DJIWaypointConfigViewController._altitudeTextField@PAGEOFF
    stur    x0, [x29, #-8]
    stur    x1, [x29, #-16]
    str    x2, [sp, #24]
Ltmp18:
    .loc    1 0 0 prologue_end      ; GSDemo/DJIWaypointConfigViewController.h:0:0
    ldr    x0, [sp, #24]
    ldur    x1, [x29, #-8]
    ldrsw    x8, [x8]
    add    x8, x1, x8
    str    x0, [sp, #16]           ; 8-byte Folded Spill
    mov    x0, x8
    ldr    x1, [sp, #16]           ; 8-byte Folded Reload
    bl    _objc_storeWeak
    str    x0, [sp, #8]            ; 8-byte Folded Spill
    .loc    1 22 51                 ; GSDemo/DJIWaypointConfigViewController.h:22:51
    ldp    x29, x30, [sp, #48]     ; 16-byte Folded Reload
    add    sp, sp, #64             ; =64
    ret
Ltmp19:
Lfunc_end6:
    .cfi_endproc
                                        ; -- End function
    .p2align    2               ; -- Begin function -[DJIWaypointConfigViewController autoFlightSpeedTextField]
"-[DJIWaypointConfigViewController autoFlightSpeedTextField]": ; @"\01-[DJIWaypointConfigViewController autoFlightSpeedTextField]"
Lfunc_begin7:
    .loc    1 23 0                  ; GSDemo/DJIWaypointConfigViewController.h:23:0
    .cfi_startproc
; %bb.0:
    sub    sp, sp, #32             ; =32
    stp    x29, x30, [sp, #16]     ; 16-byte Folded Spill
    add    x29, sp, #16            ; =16
    .cfi_def_cfa w29, 16
    .cfi_offset w30, -8
    .cfi_offset w29, -16
    str    x0, [sp, #8]
    str    x1, [sp]
Ltmp20:
    .loc    1 23 51 prologue_end    ; GSDemo/DJIWaypointConfigViewController.h:23:51
    ldr    x0, [sp, #8]
    adrp    x1, _OBJC_IVAR_$_DJIWaypointConfigViewController._autoFlightSpeedTextField@PAGE
    ldrsw    x1, [x1, _OBJC_IVAR_$_DJIWaypointConfigViewController._autoFlightSpeedTextField@PAGEOFF]
    add    x0, x0, x1
    bl    _objc_loadWeakRetained
    ldp    x29, x30, [sp, #16]     ; 16-byte Folded Reload
    add    sp, sp, #32             ; =32
    b    _objc_autoreleaseReturnValue
Ltmp21:
Lfunc_end7:
    .cfi_endproc
                                        ; -- End function
    .p2align    2               ; -- Begin function -[DJIWaypointConfigViewController setAutoFlightSpeedTextField:]
"-[DJIWaypointConfigViewController setAutoFlightSpeedTextField:]": ; @"\01-[DJIWaypointConfigViewController setAutoFlightSpeedTextField:]"
Lfunc_begin8:
    .loc    1 23 0                  ; GSDemo/DJIWaypointConfigViewController.h:23:0
    .cfi_startproc
; %bb.0:
    sub    sp, sp, #64             ; =64
    stp    x29, x30, [sp, #48]     ; 16-byte Folded Spill
    add    x29, sp, #48            ; =48
    .cfi_def_cfa w29, 16
    .cfi_offset w30, -8
    .cfi_offset w29, -16
    adrp    x8, _OBJC_IVAR_$_DJIWaypointConfigViewController._autoFlightSpeedTextField@PAGE
    add    x8, x8, _OBJC_IVAR_$_DJIWaypointConfigViewController._autoFlightSpeedTextField@PAGEOFF
    stur    x0, [x29, #-8]
    stur    x1, [x29, #-16]
    str    x2, [sp, #24]
Ltmp22:
    .loc    1 0 0 prologue_end      ; GSDemo/DJIWaypointConfigViewController.h:0:0
    ldr    x0, [sp, #24]
    ldur    x1, [x29, #-8]
    ldrsw    x8, [x8]
    add    x8, x1, x8
    str    x0, [sp, #16]           ; 8-byte Folded Spill
    mov    x0, x8
    ldr    x1, [sp, #16]           ; 8-byte Folded Reload
    bl    _objc_storeWeak
    str    x0, [sp, #8]            ; 8-byte Folded Spill
    .loc    1 23 51                 ; GSDemo/DJIWaypointConfigViewController.h:23:51
    ldp    x29, x30, [sp, #48]     ; 16-byte Folded Reload
    add    sp, sp, #64             ; =64
    ret
Ltmp23:
Lfunc_end8:
    .cfi_endproc
                                        ; -- End function
    .p2align    2               ; -- Begin function -[DJIWaypointConfigViewController maxFlightSpeedTextField]
"-[DJIWaypointConfigViewController maxFlightSpeedTextField]": ; @"\01-[DJIWaypointConfigViewController maxFlightSpeedTextField]"
Lfunc_begin9:
    .loc    1 24 0                  ; GSDemo/DJIWaypointConfigViewController.h:24:0
    .cfi_startproc
; %bb.0:
    sub    sp, sp, #32             ; =32
    stp    x29, x30, [sp, #16]     ; 16-byte Folded Spill
    add    x29, sp, #16            ; =16
    .cfi_def_cfa w29, 16
    .cfi_offset w30, -8
    .cfi_offset w29, -16
    str    x0, [sp, #8]
    str    x1, [sp]
Ltmp24:
    .loc    1 24 51 prologue_end    ; GSDemo/DJIWaypointConfigViewController.h:24:51
    ldr    x0, [sp, #8]
    adrp    x1, _OBJC_IVAR_$_DJIWaypointConfigViewController._maxFlightSpeedTextField@PAGE
    ldrsw    x1, [x1, _OBJC_IVAR_$_DJIWaypointConfigViewController._maxFlightSpeedTextField@PAGEOFF]
    add    x0, x0, x1
    bl    _objc_loadWeakRetained
    ldp    x29, x30, [sp, #16]     ; 16-byte Folded Reload
    add    sp, sp, #32             ; =32
    b    _objc_autoreleaseReturnValue
Ltmp25:
Lfunc_end9:
    .cfi_endproc
                                        ; -- End function
    .p2align    2               ; -- Begin function -[DJIWaypointConfigViewController setMaxFlightSpeedTextField:]
"-[DJIWaypointConfigViewController setMaxFlightSpeedTextField:]": ; @"\01-[DJIWaypointConfigViewController setMaxFlightSpeedTextField:]"
Lfunc_begin10:
    .loc    1 24 0                  ; GSDemo/DJIWaypointConfigViewController.h:24:0
    .cfi_startproc
; %bb.0:
    sub    sp, sp, #64             ; =64
    stp    x29, x30, [sp, #48]     ; 16-byte Folded Spill
    add    x29, sp, #48            ; =48
    .cfi_def_cfa w29, 16
    .cfi_offset w30, -8
    .cfi_offset w29, -16
    adrp    x8, _OBJC_IVAR_$_DJIWaypointConfigViewController._maxFlightSpeedTextField@PAGE
    add    x8, x8, _OBJC_IVAR_$_DJIWaypointConfigViewController._maxFlightSpeedTextField@PAGEOFF
    stur    x0, [x29, #-8]
    stur    x1, [x29, #-16]
    str    x2, [sp, #24]
Ltmp26:
    .loc    1 0 0 prologue_end      ; GSDemo/DJIWaypointConfigViewController.h:0:0
    ldr    x0, [sp, #24]
    ldur    x1, [x29, #-8]
    ldrsw    x8, [x8]
    add    x8, x1, x8
    str    x0, [sp, #16]           ; 8-byte Folded Spill
    mov    x0, x8
    ldr    x1, [sp, #16]           ; 8-byte Folded Reload
    bl    _objc_storeWeak
    str    x0, [sp, #8]            ; 8-byte Folded Spill
    .loc    1 24 51                 ; GSDemo/DJIWaypointConfigViewController.h:24:51
    ldp    x29, x30, [sp, #48]     ; 16-byte Folded Reload
    add    sp, sp, #64             ; =64
    ret
Ltmp27:
Lfunc_end10:
    .cfi_endproc
                                        ; -- End function
    .p2align    2               ; -- Begin function -[DJIWaypointConfigViewController actionSegmentedControl]
"-[DJIWaypointConfigViewController actionSegmentedControl]": ; @"\01-[DJIWaypointConfigViewController actionSegmentedControl]"
Lfunc_begin11:
    .loc    1 25 0                  ; GSDemo/DJIWaypointConfigViewController.h:25:0
    .cfi_startproc
; %bb.0:
    sub    sp, sp, #32             ; =32
    stp    x29, x30, [sp, #16]     ; 16-byte Folded Spill
    add    x29, sp, #16            ; =16
    .cfi_def_cfa w29, 16
    .cfi_offset w30, -8
    .cfi_offset w29, -16
    str    x0, [sp, #8]
    str    x1, [sp]
Ltmp28:
    .loc    1 25 58 prologue_end    ; GSDemo/DJIWaypointConfigViewController.h:25:58
    ldr    x0, [sp, #8]
    adrp    x1, _OBJC_IVAR_$_DJIWaypointConfigViewController._actionSegmentedControl@PAGE
    ldrsw    x1, [x1, _OBJC_IVAR_$_DJIWaypointConfigViewController._actionSegmentedControl@PAGEOFF]
    add    x0, x0, x1
    bl    _objc_loadWeakRetained
    ldp    x29, x30, [sp, #16]     ; 16-byte Folded Reload
    add    sp, sp, #32             ; =32
    b    _objc_autoreleaseReturnValue
Ltmp29:
Lfunc_end11:
    .cfi_endproc
                                        ; -- End function
    .p2align    2               ; -- Begin function -[DJIWaypointConfigViewController setActionSegmentedControl:]
"-[DJIWaypointConfigViewController setActionSegmentedControl:]": ; @"\01-[DJIWaypointConfigViewController setActionSegmentedControl:]"
Lfunc_begin12:
    .loc    1 25 0                  ; GSDemo/DJIWaypointConfigViewController.h:25:0
    .cfi_startproc
; %bb.0:
    sub    sp, sp, #64             ; =64
    stp    x29, x30, [sp, #48]     ; 16-byte Folded Spill
    add    x29, sp, #48            ; =48
    .cfi_def_cfa w29, 16
    .cfi_offset w30, -8
    .cfi_offset w29, -16
    adrp    x8, _OBJC_IVAR_$_DJIWaypointConfigViewController._actionSegmentedControl@PAGE
    add    x8, x8, _OBJC_IVAR_$_DJIWaypointConfigViewController._actionSegmentedControl@PAGEOFF
    stur    x0, [x29, #-8]
    stur    x1, [x29, #-16]
    str    x2, [sp, #24]
Ltmp30:
    .loc    1 0 0 prologue_end      ; GSDemo/DJIWaypointConfigViewController.h:0:0
    ldr    x0, [sp, #24]
    ldur    x1, [x29, #-8]
    ldrsw    x8, [x8]
    add    x8, x1, x8
    str    x0, [sp, #16]           ; 8-byte Folded Spill
    mov    x0, x8
    ldr    x1, [sp, #16]           ; 8-byte Folded Reload
    bl    _objc_storeWeak
    str    x0, [sp, #8]            ; 8-byte Folded Spill
    .loc    1 25 58                 ; GSDemo/DJIWaypointConfigViewController.h:25:58
    ldp    x29, x30, [sp, #48]     ; 16-byte Folded Reload
    add    sp, sp, #64             ; =64
    ret
Ltmp31:
Lfunc_end12:
    .cfi_endproc
                                        ; -- End function
    .p2align    2               ; -- Begin function -[DJIWaypointConfigViewController headingSegmentedControl]
"-[DJIWaypointConfigViewController headingSegmentedControl]": ; @"\01-[DJIWaypointConfigViewController headingSegmentedControl]"
Lfunc_begin13:
    .loc    1 26 0                  ; GSDemo/DJIWaypointConfigViewController.h:26:0
    .cfi_startproc
; %bb.0:
    sub    sp, sp, #32             ; =32
    stp    x29, x30, [sp, #16]     ; 16-byte Folded Spill
    add    x29, sp, #16            ; =16
    .cfi_def_cfa w29, 16
    .cfi_offset w30, -8
    .cfi_offset w29, -16
    str    x0, [sp, #8]
    str    x1, [sp]
Ltmp32:
    .loc    1 26 58 prologue_end    ; GSDemo/DJIWaypointConfigViewController.h:26:58
    ldr    x0, [sp, #8]
    adrp    x1, _OBJC_IVAR_$_DJIWaypointConfigViewController._headingSegmentedControl@PAGE
    ldrsw    x1, [x1, _OBJC_IVAR_$_DJIWaypointConfigViewController._headingSegmentedControl@PAGEOFF]
    add    x0, x0, x1
    bl    _objc_loadWeakRetained
    ldp    x29, x30, [sp, #16]     ; 16-byte Folded Reload
    add    sp, sp, #32             ; =32
    b    _objc_autoreleaseReturnValue
Ltmp33:
Lfunc_end13:
    .cfi_endproc
                                        ; -- End function
    .p2align    2               ; -- Begin function -[DJIWaypointConfigViewController setHeadingSegmentedControl:]
"-[DJIWaypointConfigViewController setHeadingSegmentedControl:]": ; @"\01-[DJIWaypointConfigViewController setHeadingSegmentedControl:]"
Lfunc_begin14:
    .loc    1 26 0                  ; GSDemo/DJIWaypointConfigViewController.h:26:0
    .cfi_startproc
; %bb.0:
    sub    sp, sp, #64             ; =64
    stp    x29, x30, [sp, #48]     ; 16-byte Folded Spill
    add    x29, sp, #48            ; =48
    .cfi_def_cfa w29, 16
    .cfi_offset w30, -8
    .cfi_offset w29, -16
    adrp    x8, _OBJC_IVAR_$_DJIWaypointConfigViewController._headingSegmentedControl@PAGE
    add    x8, x8, _OBJC_IVAR_$_DJIWaypointConfigViewController._headingSegmentedControl@PAGEOFF
    stur    x0, [x29, #-8]
    stur    x1, [x29, #-16]
    str    x2, [sp, #24]
Ltmp34:
    .loc    1 0 0 prologue_end      ; GSDemo/DJIWaypointConfigViewController.h:0:0
    ldr    x0, [sp, #24]
    ldur    x1, [x29, #-8]
    ldrsw    x8, [x8]
    add    x8, x1, x8
    str    x0, [sp, #16]           ; 8-byte Folded Spill
    mov    x0, x8
    ldr    x1, [sp, #16]           ; 8-byte Folded Reload
    bl    _objc_storeWeak
    str    x0, [sp, #8]            ; 8-byte Folded Spill
    .loc    1 26 58                 ; GSDemo/DJIWaypointConfigViewController.h:26:58
    ldp    x29, x30, [sp, #48]     ; 16-byte Folded Reload
    add    sp, sp, #64             ; =64
    ret
Ltmp35:
Lfunc_end14:
    .cfi_endproc
                                        ; -- End function
    .p2align    2               ; -- Begin function -[DJIWaypointConfigViewController delegate]
"-[DJIWaypointConfigViewController delegate]": ; @"\01-[DJIWaypointConfigViewController delegate]"
Lfunc_begin15:
    .loc    1 28 0                  ; GSDemo/DJIWaypointConfigViewController.h:28:0
    .cfi_startproc
; %bb.0:
    sub    sp, sp, #32             ; =32
    stp    x29, x30, [sp, #16]     ; 16-byte Folded Spill
    add    x29, sp, #16            ; =16
    .cfi_def_cfa w29, 16
    .cfi_offset w30, -8
    .cfi_offset w29, -16
    str    x0, [sp, #8]
    str    x1, [sp]
Ltmp36:
    .loc    1 28 73 prologue_end    ; GSDemo/DJIWaypointConfigViewController.h:28:73
    ldr    x0, [sp, #8]
    adrp    x1, _OBJC_IVAR_$_DJIWaypointConfigViewController._delegate@PAGE
    ldrsw    x1, [x1, _OBJC_IVAR_$_DJIWaypointConfigViewController._delegate@PAGEOFF]
    add    x0, x0, x1
    bl    _objc_loadWeakRetained
    ldp    x29, x30, [sp, #16]     ; 16-byte Folded Reload
    add    sp, sp, #32             ; =32
    b    _objc_autoreleaseReturnValue
Ltmp37:
Lfunc_end15:
    .cfi_endproc
                                        ; -- End function
    .p2align    2               ; -- Begin function -[DJIWaypointConfigViewController setDelegate:]
"-[DJIWaypointConfigViewController setDelegate:]": ; @"\01-[DJIWaypointConfigViewController setDelegate:]"
Lfunc_begin16:
    .loc    1 28 0                  ; GSDemo/DJIWaypointConfigViewController.h:28:0
    .cfi_startproc
; %bb.0:
    sub    sp, sp, #48             ; =48
    stp    x29, x30, [sp, #32]     ; 16-byte Folded Spill
    add    x29, sp, #32            ; =32
    .cfi_def_cfa w29, 16
    .cfi_offset w30, -8
    .cfi_offset w29, -16
    adrp    x8, _OBJC_IVAR_$_DJIWaypointConfigViewController._delegate@PAGE
    add    x8, x8, _OBJC_IVAR_$_DJIWaypointConfigViewController._delegate@PAGEOFF
    stur    x0, [x29, #-8]
    str    x1, [sp, #16]
    str    x2, [sp, #8]
Ltmp38:
    .loc    1 0 0 prologue_end      ; GSDemo/DJIWaypointConfigViewController.h:0:0
    ldr    x1, [sp, #8]
    ldur    x0, [x29, #-8]
    ldrsw    x8, [x8]
    add    x8, x0, x8
    mov    x0, x8
    bl    _objc_storeWeak
    str    x0, [sp]                ; 8-byte Folded Spill
    .loc    1 28 73                 ; GSDemo/DJIWaypointConfigViewController.h:28:73
    ldp    x29, x30, [sp, #32]     ; 16-byte Folded Reload
    add    sp, sp, #48             ; =48
    ret
Ltmp39:
Lfunc_end16:
    .cfi_endproc
                                        ; -- End function
    .p2align    2               ; -- Begin function -[DJIWaypointConfigViewController .cxx_destruct]
"-[DJIWaypointConfigViewController .cxx_destruct]": ; @"\01-[DJIWaypointConfigViewController .cxx_destruct]"
Lfunc_begin17:
    .loc    3 15 0                  ; GSDemo/DJIWaypointConfigViewController.m:15:0
    .cfi_startproc
; %bb.0:
    sub    sp, sp, #48             ; =48
    stp    x29, x30, [sp, #32]     ; 16-byte Folded Spill
    add    x29, sp, #32            ; =32
    .cfi_def_cfa w29, 16
    .cfi_offset w30, -8
    .cfi_offset w29, -16
    adrp    x8, _OBJC_IVAR_$_DJIWaypointConfigViewController._delegate@PAGE
    add    x8, x8, _OBJC_IVAR_$_DJIWaypointConfigViewController._delegate@PAGEOFF
    stur    x0, [x29, #-8]
    str    x1, [sp, #16]
Ltmp40:
    .loc    3 15 17 prologue_end    ; GSDemo/DJIWaypointConfigViewController.m:15:17
    ldur    x0, [x29, #-8]
    ldrsw    x8, [x8]
    mov    x1, x0
    add    x8, x1, x8
    str    x0, [sp, #8]            ; 8-byte Folded Spill
    mov    x0, x8
    bl    _objc_destroyWeak
    adrp    x8, _OBJC_IVAR_$_DJIWaypointConfigViewController._headingSegmentedControl@PAGE
    add    x8, x8, _OBJC_IVAR_$_DJIWaypointConfigViewController._headingSegmentedControl@PAGEOFF
    ldrsw    x8, [x8]
    ldr    x0, [sp, #8]            ; 8-byte Folded Reload
    add    x8, x0, x8
    mov    x0, x8
    bl    _objc_destroyWeak
    adrp    x8, _OBJC_IVAR_$_DJIWaypointConfigViewController._actionSegmentedControl@PAGE
    add    x8, x8, _OBJC_IVAR_$_DJIWaypointConfigViewController._actionSegmentedControl@PAGEOFF
    ldrsw    x8, [x8]
    ldr    x0, [sp, #8]            ; 8-byte Folded Reload
    add    x8, x0, x8
    mov    x0, x8
    bl    _objc_destroyWeak
    adrp    x8, _OBJC_IVAR_$_DJIWaypointConfigViewController._maxFlightSpeedTextField@PAGE
    add    x8, x8, _OBJC_IVAR_$_DJIWaypointConfigViewController._maxFlightSpeedTextField@PAGEOFF
    ldrsw    x8, [x8]
    ldr    x0, [sp, #8]            ; 8-byte Folded Reload
    add    x8, x0, x8
    mov    x0, x8
    bl    _objc_destroyWeak
    adrp    x8, _OBJC_IVAR_$_DJIWaypointConfigViewController._autoFlightSpeedTextField@PAGE
    add    x8, x8, _OBJC_IVAR_$_DJIWaypointConfigViewController._autoFlightSpeedTextField@PAGEOFF
    ldrsw    x8, [x8]
    ldr    x0, [sp, #8]            ; 8-byte Folded Reload
    add    x8, x0, x8
    mov    x0, x8
    bl    _objc_destroyWeak
    adrp    x8, _OBJC_IVAR_$_DJIWaypointConfigViewController._altitudeTextField@PAGE
    add    x8, x8, _OBJC_IVAR_$_DJIWaypointConfigViewController._altitudeTextField@PAGEOFF
    ldrsw    x8, [x8]
    ldr    x0, [sp, #8]            ; 8-byte Folded Reload
    add    x8, x0, x8
    mov    x0, x8
    bl    _objc_destroyWeak
    ldp    x29, x30, [sp, #32]     ; 16-byte Folded Reload
    add    sp, sp, #48             ; =48
    ret
Ltmp41:
Lfunc_end17:
    .cfi_endproc
                                        ; -- End function
    .section    __DATA,__objc_data
    .globl    _OBJC_CLASS_$_DJIWaypointConfigViewController ; @"OBJC_CLASS_$_DJIWaypointConfigViewController"
    .p2align    3
_OBJC_CLASS_$_DJIWaypointConfigViewController:
    .quad    _OBJC_METACLASS_$_DJIWaypointConfigViewController
    .quad    _OBJC_CLASS_$_UIViewController
    .quad    __objc_empty_cache
    .quad    0
    .quad    l_OBJC_CLASS_RO_$_DJIWaypointConfigViewController

    .section    __DATA,__objc_superrefs,regular,no_dead_strip
    .p2align    3               ; @"OBJC_CLASSLIST_SUP_REFS_$_"
l_OBJC_CLASSLIST_SUP_REFS_$_:
    .quad    _OBJC_CLASS_$_DJIWaypointConfigViewController

    .section    __TEXT,__objc_methname,cstring_literals
l_OBJC_METH_VAR_NAME_:                  ; @OBJC_METH_VAR_NAME_
    .asciz    "viewDidLoad"

    .section    __DATA,__objc_selrefs,literal_pointers,no_dead_strip
    .p2align    3               ; @OBJC_SELECTOR_REFERENCES_
l_OBJC_SELECTOR_REFERENCES_:
    .quad    l_OBJC_METH_VAR_NAME_

    .section    __TEXT,__objc_methname,cstring_literals
l_OBJC_METH_VAR_NAME_.1:                ; @OBJC_METH_VAR_NAME_.1
    .asciz    "initUI"

    .section    __DATA,__objc_selrefs,literal_pointers,no_dead_strip
    .p2align    3               ; @OBJC_SELECTOR_REFERENCES_.2
l_OBJC_SELECTOR_REFERENCES_.2:
    .quad    l_OBJC_METH_VAR_NAME_.1

    .section    __TEXT,__objc_methname,cstring_literals
l_OBJC_METH_VAR_NAME_.3:                ; @OBJC_METH_VAR_NAME_.3
    .asciz    "didReceiveMemoryWarning"

    .section    __DATA,__objc_selrefs,literal_pointers,no_dead_strip
    .p2align    3               ; @OBJC_SELECTOR_REFERENCES_.4
l_OBJC_SELECTOR_REFERENCES_.4:
    .quad    l_OBJC_METH_VAR_NAME_.3

    .section    __TEXT,__cstring,cstring_literals
l_.str:                                 ; @.str
    .asciz    "1" // this is the altitude value in the config form

    .section    __DATA,__cfstring
    .p2align    3               ; @_unnamed_cfstring_
l__unnamed_cfstring_:
    .quad    ___CFConstantStringClassReference
    .long    1992                    ; 0x7c8
    .space    4
    .quad    l_.str
    .quad    2                       ; 0x2

    .section    __TEXT,__objc_methname,cstring_literals
l_OBJC_METH_VAR_NAME_.5:                ; @OBJC_METH_VAR_NAME_.5
    .asciz    "altitudeTextField"

    .section    __DATA,__objc_selrefs,literal_pointers,no_dead_strip
    .p2align    3               ; @OBJC_SELECTOR_REFERENCES_.6
l_OBJC_SELECTOR_REFERENCES_.6:
    .quad    l_OBJC_METH_VAR_NAME_.5

    .section    __TEXT,__objc_methname,cstring_literals
l_OBJC_METH_VAR_NAME_.7:                ; @OBJC_METH_VAR_NAME_.7
    .asciz    "setText:"

    .section    __DATA,__objc_selrefs,literal_pointers,no_dead_strip
    .p2align    3               ; @OBJC_SELECTOR_REFERENCES_.8
l_OBJC_SELECTOR_REFERENCES_.8:
    .quad    l_OBJC_METH_VAR_NAME_.7

    .section    __TEXT,__cstring,cstring_literals
l_.str.9:                               ; @.str.9
    .asciz    "8"

    .section    __DATA,__cfstring
    .p2align    3               ; @_unnamed_cfstring_.10
l__unnamed_cfstring_.10:
    .quad    ___CFConstantStringClassReference
    .long    1992                    ; 0x7c8
    .space    4
    .quad    l_.str.9
    .quad    1                       ; 0x1

    .section    __TEXT,__objc_methname,cstring_literals
l_OBJC_METH_VAR_NAME_.11:               ; @OBJC_METH_VAR_NAME_.11
    .asciz    "autoFlightSpeedTextField"

    .section    __DATA,__objc_selrefs,literal_pointers,no_dead_strip
    .p2align    3               ; @OBJC_SELECTOR_REFERENCES_.12
l_OBJC_SELECTOR_REFERENCES_.12:
    .quad    l_OBJC_METH_VAR_NAME_.11

    .section    __TEXT,__cstring,cstring_literals
l_.str.13:                              ; @.str.13
    .asciz    "10"

    .section    __DATA,__cfstring
    .p2align    3               ; @_unnamed_cfstring_.14
l__unnamed_cfstring_.14:
    .quad    ___CFConstantStringClassReference
    .long    1992                    ; 0x7c8
    .space    4
    .quad    l_.str.13
    .quad    2                       ; 0x2

    .section    __TEXT,__objc_methname,cstring_literals
l_OBJC_METH_VAR_NAME_.15:               ; @OBJC_METH_VAR_NAME_.15
    .asciz    "maxFlightSpeedTextField"

    .section    __DATA,__objc_selrefs,literal_pointers,no_dead_strip
    .p2align    3               ; @OBJC_SELECTOR_REFERENCES_.16
l_OBJC_SELECTOR_REFERENCES_.16:
    .quad    l_OBJC_METH_VAR_NAME_.15

    .section    __TEXT,__objc_methname,cstring_literals
l_OBJC_METH_VAR_NAME_.17:               ; @OBJC_METH_VAR_NAME_.17
    .asciz    "actionSegmentedControl"

    .section    __DATA,__objc_selrefs,literal_pointers,no_dead_strip
    .p2align    3               ; @OBJC_SELECTOR_REFERENCES_.18
l_OBJC_SELECTOR_REFERENCES_.18:
    .quad    l_OBJC_METH_VAR_NAME_.17

    .section    __TEXT,__objc_methname,cstring_literals
l_OBJC_METH_VAR_NAME_.19:               ; @OBJC_METH_VAR_NAME_.19
    .asciz    "setSelectedSegmentIndex:"

    .section    __DATA,__objc_selrefs,literal_pointers,no_dead_strip
    .p2align    3               ; @OBJC_SELECTOR_REFERENCES_.20
l_OBJC_SELECTOR_REFERENCES_.20:
    .quad    l_OBJC_METH_VAR_NAME_.19

    .section    __TEXT,__objc_methname,cstring_literals
l_OBJC_METH_VAR_NAME_.21:               ; @OBJC_METH_VAR_NAME_.21
    .asciz    "headingSegmentedControl"

    .section    __DATA,__objc_selrefs,literal_pointers,no_dead_strip
    .p2align    3               ; @OBJC_SELECTOR_REFERENCES_.22
l_OBJC_SELECTOR_REFERENCES_.22:
    .quad    l_OBJC_METH_VAR_NAME_.21

    .private_extern    _OBJC_IVAR_$_DJIWaypointConfigViewController._delegate ; @"OBJC_IVAR_$_DJIWaypointConfigViewController._delegate"
    .section    __DATA,__objc_ivar
    .globl    _OBJC_IVAR_$_DJIWaypointConfigViewController._delegate
    .p2align    2
_OBJC_IVAR_$_DJIWaypointConfigViewController._delegate:
    .long    48                      ; 0x30

    .section    __TEXT,__objc_methname,cstring_literals
l_OBJC_METH_VAR_NAME_.23:               ; @OBJC_METH_VAR_NAME_.23
    .asciz    "cancelBtnActionInDJIWaypointConfigViewController:"

    .section    __DATA,__objc_selrefs,literal_pointers,no_dead_strip
    .p2align    3               ; @OBJC_SELECTOR_REFERENCES_.24
l_OBJC_SELECTOR_REFERENCES_.24:
    .quad    l_OBJC_METH_VAR_NAME_.23

    .section    __TEXT,__objc_methname,cstring_literals
l_OBJC_METH_VAR_NAME_.25:               ; @OBJC_METH_VAR_NAME_.25
    .asciz    "respondsToSelector:"

    .section    __DATA,__objc_selrefs,literal_pointers,no_dead_strip
    .p2align    3               ; @OBJC_SELECTOR_REFERENCES_.26
l_OBJC_SELECTOR_REFERENCES_.26:
    .quad    l_OBJC_METH_VAR_NAME_.25

    .section    __TEXT,__objc_methname,cstring_literals
l_OBJC_METH_VAR_NAME_.27:               ; @OBJC_METH_VAR_NAME_.27
    .asciz    "finishBtnActionInDJIWaypointConfigViewController:"

    .section    __DATA,__objc_selrefs,literal_pointers,no_dead_strip
    .p2align    3               ; @OBJC_SELECTOR_REFERENCES_.28
l_OBJC_SELECTOR_REFERENCES_.28:
    .quad    l_OBJC_METH_VAR_NAME_.27

    .private_extern    _OBJC_IVAR_$_DJIWaypointConfigViewController._altitudeTextField ; @"OBJC_IVAR_$_DJIWaypointConfigViewController._altitudeTextField"
    .section    __DATA,__objc_ivar
    .globl    _OBJC_IVAR_$_DJIWaypointConfigViewController._altitudeTextField
    .p2align    2
_OBJC_IVAR_$_DJIWaypointConfigViewController._altitudeTextField:
    .long    8                       ; 0x8

    .private_extern    _OBJC_IVAR_$_DJIWaypointConfigViewController._autoFlightSpeedTextField ; @"OBJC_IVAR_$_DJIWaypointConfigViewController._autoFlightSpeedTextField"
    .globl    _OBJC_IVAR_$_DJIWaypointConfigViewController._autoFlightSpeedTextField
    .p2align    2
_OBJC_IVAR_$_DJIWaypointConfigViewController._autoFlightSpeedTextField:
    .long    16                      ; 0x10

    .private_extern    _OBJC_IVAR_$_DJIWaypointConfigViewController._maxFlightSpeedTextField ; @"OBJC_IVAR_$_DJIWaypointConfigViewController._maxFlightSpeedTextField"
    .globl    _OBJC_IVAR_$_DJIWaypointConfigViewController._maxFlightSpeedTextField
    .p2align    2
_OBJC_IVAR_$_DJIWaypointConfigViewController._maxFlightSpeedTextField:
    .long    24                      ; 0x18

    .private_extern    _OBJC_IVAR_$_DJIWaypointConfigViewController._actionSegmentedControl ; @"OBJC_IVAR_$_DJIWaypointConfigViewController._actionSegmentedControl"
    .globl    _OBJC_IVAR_$_DJIWaypointConfigViewController._actionSegmentedControl
    .p2align    2
_OBJC_IVAR_$_DJIWaypointConfigViewController._actionSegmentedControl:
    .long    32                      ; 0x20

    .private_extern    _OBJC_IVAR_$_DJIWaypointConfigViewController._headingSegmentedControl ; @"OBJC_IVAR_$_DJIWaypointConfigViewController._headingSegmentedControl"
    .globl    _OBJC_IVAR_$_DJIWaypointConfigViewController._headingSegmentedControl
    .p2align    2
_OBJC_IVAR_$_DJIWaypointConfigViewController._headingSegmentedControl:
    .long    40                      ; 0x28

    .section    __TEXT,__objc_classname,cstring_literals
l_OBJC_CLASS_NAME_:                     ; @OBJC_CLASS_NAME_
    .asciz    "DJIWaypointConfigViewController"

    .section    __DATA,__objc_const
    .p2align    3               ; @"\01l_OBJC_METACLASS_RO_$_DJIWaypointConfigViewController"
l_OBJC_METACLASS_RO_$_DJIWaypointConfigViewController:
    .long    389                     ; 0x185
    .long    40                      ; 0x28
    .long    40                      ; 0x28
    .space    4
    .quad    0
    .quad    l_OBJC_CLASS_NAME_
    .quad    0
    .quad    0
    .quad    0
    .quad    0
    .quad    0

    .section    __DATA,__objc_data
    .globl    _OBJC_METACLASS_$_DJIWaypointConfigViewController ; @"OBJC_METACLASS_$_DJIWaypointConfigViewController"
    .p2align    3
_OBJC_METACLASS_$_DJIWaypointConfigViewController:
    .quad    _OBJC_METACLASS_$_NSObject
    .quad    _OBJC_METACLASS_$_UIViewController
    .quad    __objc_empty_cache
    .quad    0
    .quad    l_OBJC_METACLASS_RO_$_DJIWaypointConfigViewController

    .section    __TEXT,__objc_methtype,cstring_literals
l_OBJC_METH_VAR_TYPE_:                  ; @OBJC_METH_VAR_TYPE_
    .asciz    "v16@0:8"

    .section    __TEXT,__objc_methname,cstring_literals
l_OBJC_METH_VAR_NAME_.29:               ; @OBJC_METH_VAR_NAME_.29
    .asciz    "cancelBtnAction:"

    .section    __TEXT,__objc_methtype,cstring_literals
l_OBJC_METH_VAR_TYPE_.30:               ; @OBJC_METH_VAR_TYPE_.30
    .asciz    "v24@0:8@16"

    .section    __TEXT,__objc_methname,cstring_literals
l_OBJC_METH_VAR_NAME_.31:               ; @OBJC_METH_VAR_NAME_.31
    .asciz    "finishBtnAction:"

l_OBJC_METH_VAR_NAME_.32:               ; @OBJC_METH_VAR_NAME_.32
    .asciz    ".cxx_destruct"

    .section    __TEXT,__objc_methtype,cstring_literals
l_OBJC_METH_VAR_TYPE_.33:               ; @OBJC_METH_VAR_TYPE_.33
    .asciz    "@16@0:8"

    .section    __TEXT,__objc_methname,cstring_literals
l_OBJC_METH_VAR_NAME_.34:               ; @OBJC_METH_VAR_NAME_.34
    .asciz    "setAltitudeTextField:"

l_OBJC_METH_VAR_NAME_.35:               ; @OBJC_METH_VAR_NAME_.35
    .asciz    "setAutoFlightSpeedTextField:"

l_OBJC_METH_VAR_NAME_.36:               ; @OBJC_METH_VAR_NAME_.36
    .asciz    "setMaxFlightSpeedTextField:"

l_OBJC_METH_VAR_NAME_.37:               ; @OBJC_METH_VAR_NAME_.37
    .asciz    "setActionSegmentedControl:"

l_OBJC_METH_VAR_NAME_.38:               ; @OBJC_METH_VAR_NAME_.38
    .asciz    "setHeadingSegmentedControl:"

l_OBJC_METH_VAR_NAME_.39:               ; @OBJC_METH_VAR_NAME_.39
    .asciz    "delegate"

l_OBJC_METH_VAR_NAME_.40:               ; @OBJC_METH_VAR_NAME_.40
    .asciz    "setDelegate:"

    .section    __DATA,__objc_const
    .p2align    3               ; @"\01l_OBJC_$_INSTANCE_METHODS_DJIWaypointConfigViewController"
l_OBJC_$_INSTANCE_METHODS_DJIWaypointConfigViewController:
    .long    24                      ; 0x18
    .long    18                      ; 0x12
    .quad    l_OBJC_METH_VAR_NAME_
    .quad    l_OBJC_METH_VAR_TYPE_
    .quad    "-[DJIWaypointConfigViewController viewDidLoad]"
    .quad    l_OBJC_METH_VAR_NAME_.3
    .quad    l_OBJC_METH_VAR_TYPE_
    .quad    "-[DJIWaypointConfigViewController didReceiveMemoryWarning]"
    .quad    l_OBJC_METH_VAR_NAME_.1
    .quad    l_OBJC_METH_VAR_TYPE_
    .quad    "-[DJIWaypointConfigViewController initUI]"
    .quad    l_OBJC_METH_VAR_NAME_.29
    .quad    l_OBJC_METH_VAR_TYPE_.30
    .quad    "-[DJIWaypointConfigViewController cancelBtnAction:]"
    .quad    l_OBJC_METH_VAR_NAME_.31
    .quad    l_OBJC_METH_VAR_TYPE_.30
    .quad    "-[DJIWaypointConfigViewController finishBtnAction:]"
    .quad    l_OBJC_METH_VAR_NAME_.32
    .quad    l_OBJC_METH_VAR_TYPE_
    .quad    "-[DJIWaypointConfigViewController .cxx_destruct]"
    .quad    l_OBJC_METH_VAR_NAME_.5
    .quad    l_OBJC_METH_VAR_TYPE_.33
    .quad    "-[DJIWaypointConfigViewController altitudeTextField]"
    .quad    l_OBJC_METH_VAR_NAME_.34
    .quad    l_OBJC_METH_VAR_TYPE_.30
    .quad    "-[DJIWaypointConfigViewController setAltitudeTextField:]"
    .quad    l_OBJC_METH_VAR_NAME_.11
    .quad    l_OBJC_METH_VAR_TYPE_.33
    .quad    "-[DJIWaypointConfigViewController autoFlightSpeedTextField]"
    .quad    l_OBJC_METH_VAR_NAME_.35
    .quad    l_OBJC_METH_VAR_TYPE_.30
    .quad    "-[DJIWaypointConfigViewController setAutoFlightSpeedTextField:]"
    .quad    l_OBJC_METH_VAR_NAME_.15
    .quad    l_OBJC_METH_VAR_TYPE_.33
    .quad    "-[DJIWaypointConfigViewController maxFlightSpeedTextField]"
    .quad    l_OBJC_METH_VAR_NAME_.36
    .quad    l_OBJC_METH_VAR_TYPE_.30
    .quad    "-[DJIWaypointConfigViewController setMaxFlightSpeedTextField:]"
    .quad    l_OBJC_METH_VAR_NAME_.17
    .quad    l_OBJC_METH_VAR_TYPE_.33
    .quad    "-[DJIWaypointConfigViewController actionSegmentedControl]"
    .quad    l_OBJC_METH_VAR_NAME_.37
    .quad    l_OBJC_METH_VAR_TYPE_.30
    .quad    "-[DJIWaypointConfigViewController setActionSegmentedControl:]"
    .quad    l_OBJC_METH_VAR_NAME_.21
    .quad    l_OBJC_METH_VAR_TYPE_.33
    .quad    "-[DJIWaypointConfigViewController headingSegmentedControl]"
    .quad    l_OBJC_METH_VAR_NAME_.38
    .quad    l_OBJC_METH_VAR_TYPE_.30
    .quad    "-[DJIWaypointConfigViewController setHeadingSegmentedControl:]"
    .quad    l_OBJC_METH_VAR_NAME_.39
    .quad    l_OBJC_METH_VAR_TYPE_.33
    .quad    "-[DJIWaypointConfigViewController delegate]"
    .quad    l_OBJC_METH_VAR_NAME_.40
    .quad    l_OBJC_METH_VAR_TYPE_.30
    .quad    "-[DJIWaypointConfigViewController setDelegate:]"

    .section    __TEXT,__objc_methname,cstring_literals
l_OBJC_METH_VAR_NAME_.41:               ; @OBJC_METH_VAR_NAME_.41
    .asciz    "_altitudeTextField"

    .section    __TEXT,__objc_methtype,cstring_literals
l_OBJC_METH_VAR_TYPE_.42:               ; @OBJC_METH_VAR_TYPE_.42
    .asciz    "@\"UITextField\""

    .section    __TEXT,__objc_methname,cstring_literals
l_OBJC_METH_VAR_NAME_.43:               ; @OBJC_METH_VAR_NAME_.43
    .asciz    "_autoFlightSpeedTextField"

l_OBJC_METH_VAR_NAME_.44:               ; @OBJC_METH_VAR_NAME_.44
    .asciz    "_maxFlightSpeedTextField"

l_OBJC_METH_VAR_NAME_.45:               ; @OBJC_METH_VAR_NAME_.45
    .asciz    "_actionSegmentedControl"

    .section    __TEXT,__objc_methtype,cstring_literals
l_OBJC_METH_VAR_TYPE_.46:               ; @OBJC_METH_VAR_TYPE_.46
    .asciz    "@\"UISegmentedControl\""

    .section    __TEXT,__objc_methname,cstring_literals
l_OBJC_METH_VAR_NAME_.47:               ; @OBJC_METH_VAR_NAME_.47
    .asciz    "_headingSegmentedControl"

l_OBJC_METH_VAR_NAME_.48:               ; @OBJC_METH_VAR_NAME_.48
    .asciz    "_delegate"

    .section    __TEXT,__objc_methtype,cstring_literals
l_OBJC_METH_VAR_TYPE_.49:               ; @OBJC_METH_VAR_TYPE_.49
    .asciz    "@\"<DJIWaypointConfigViewControllerDelegate>\""

    .section    __DATA,__objc_const
    .p2align    3               ; @"\01l_OBJC_$_INSTANCE_VARIABLES_DJIWaypointConfigViewController"
l_OBJC_$_INSTANCE_VARIABLES_DJIWaypointConfigViewController:
    .long    32                      ; 0x20
    .long    6                       ; 0x6
    .quad    _OBJC_IVAR_$_DJIWaypointConfigViewController._altitudeTextField
    .quad    l_OBJC_METH_VAR_NAME_.41
    .quad    l_OBJC_METH_VAR_TYPE_.42
    .long    3                       ; 0x3
    .long    8                       ; 0x8
    .quad    _OBJC_IVAR_$_DJIWaypointConfigViewController._autoFlightSpeedTextField
    .quad    l_OBJC_METH_VAR_NAME_.43
    .quad    l_OBJC_METH_VAR_TYPE_.42
    .long    3                       ; 0x3
    .long    8                       ; 0x8
    .quad    _OBJC_IVAR_$_DJIWaypointConfigViewController._maxFlightSpeedTextField
    .quad    l_OBJC_METH_VAR_NAME_.44
    .quad    l_OBJC_METH_VAR_TYPE_.42
    .long    3                       ; 0x3
    .long    8                       ; 0x8
    .quad    _OBJC_IVAR_$_DJIWaypointConfigViewController._actionSegmentedControl
    .quad    l_OBJC_METH_VAR_NAME_.45
    .quad    l_OBJC_METH_VAR_TYPE_.46
    .long    3                       ; 0x3
    .long    8                       ; 0x8
    .quad    _OBJC_IVAR_$_DJIWaypointConfigViewController._headingSegmentedControl
    .quad    l_OBJC_METH_VAR_NAME_.47
    .quad    l_OBJC_METH_VAR_TYPE_.46
    .long    3                       ; 0x3
    .long    8                       ; 0x8
    .quad    _OBJC_IVAR_$_DJIWaypointConfigViewController._delegate
    .quad    l_OBJC_METH_VAR_NAME_.48
    .quad    l_OBJC_METH_VAR_TYPE_.49
    .long    3                       ; 0x3
    .long    8                       ; 0x8

    .section    __TEXT,__objc_classname,cstring_literals
l_OBJC_CLASS_NAME_.50:                  ; @OBJC_CLASS_NAME_.50
    .asciz    "\006"

    .section    __TEXT,__cstring,cstring_literals
l_OBJC_PROP_NAME_ATTR_:                 ; @OBJC_PROP_NAME_ATTR_
    .asciz    "altitudeTextField"

l_OBJC_PROP_NAME_ATTR_.51:              ; @OBJC_PROP_NAME_ATTR_.51
    .asciz    "T@\"UITextField\",W,N,V_altitudeTextField"

l_OBJC_PROP_NAME_ATTR_.52:              ; @OBJC_PROP_NAME_ATTR_.52
    .asciz    "autoFlightSpeedTextField"

l_OBJC_PROP_NAME_ATTR_.53:              ; @OBJC_PROP_NAME_ATTR_.53
    .asciz    "T@\"UITextField\",W,N,V_autoFlightSpeedTextField"

l_OBJC_PROP_NAME_ATTR_.54:              ; @OBJC_PROP_NAME_ATTR_.54
    .asciz    "maxFlightSpeedTextField"

l_OBJC_PROP_NAME_ATTR_.55:              ; @OBJC_PROP_NAME_ATTR_.55
    .asciz    "T@\"UITextField\",W,N,V_maxFlightSpeedTextField"

l_OBJC_PROP_NAME_ATTR_.56:              ; @OBJC_PROP_NAME_ATTR_.56
    .asciz    "actionSegmentedControl"

l_OBJC_PROP_NAME_ATTR_.57:              ; @OBJC_PROP_NAME_ATTR_.57
    .asciz    "T@\"UISegmentedControl\",W,N,V_actionSegmentedControl"

l_OBJC_PROP_NAME_ATTR_.58:              ; @OBJC_PROP_NAME_ATTR_.58
    .asciz    "headingSegmentedControl"

l_OBJC_PROP_NAME_ATTR_.59:              ; @OBJC_PROP_NAME_ATTR_.59
    .asciz    "T@\"UISegmentedControl\",W,N,V_headingSegmentedControl"

l_OBJC_PROP_NAME_ATTR_.60:              ; @OBJC_PROP_NAME_ATTR_.60
    .asciz    "delegate"

l_OBJC_PROP_NAME_ATTR_.61:              ; @OBJC_PROP_NAME_ATTR_.61
    .asciz    "T@\"<DJIWaypointConfigViewControllerDelegate>\",W,N,V_delegate"

    .section    __DATA,__objc_const
    .p2align    3               ; @"\01l_OBJC_$_PROP_LIST_DJIWaypointConfigViewController"
l_OBJC_$_PROP_LIST_DJIWaypointConfigViewController:
    .long    16                      ; 0x10
    .long    6                       ; 0x6
    .quad    l_OBJC_PROP_NAME_ATTR_
    .quad    l_OBJC_PROP_NAME_ATTR_.51
    .quad    l_OBJC_PROP_NAME_ATTR_.52
    .quad    l_OBJC_PROP_NAME_ATTR_.53
    .quad    l_OBJC_PROP_NAME_ATTR_.54
    .quad    l_OBJC_PROP_NAME_ATTR_.55
    .quad    l_OBJC_PROP_NAME_ATTR_.56
    .quad    l_OBJC_PROP_NAME_ATTR_.57
    .quad    l_OBJC_PROP_NAME_ATTR_.58
    .quad    l_OBJC_PROP_NAME_ATTR_.59
    .quad    l_OBJC_PROP_NAME_ATTR_.60
    .quad    l_OBJC_PROP_NAME_ATTR_.61

    .p2align    3               ; @"\01l_OBJC_CLASS_RO_$_DJIWaypointConfigViewController"
l_OBJC_CLASS_RO_$_DJIWaypointConfigViewController:
    .long    388                     ; 0x184
    .long    8                       ; 0x8
    .long    56                      ; 0x38
    .space    4
    .quad    0
    .quad    l_OBJC_CLASS_NAME_
    .quad    l_OBJC_$_INSTANCE_METHODS_DJIWaypointConfigViewController
    .quad    0
    .quad    l_OBJC_$_INSTANCE_VARIABLES_DJIWaypointConfigViewController
    .quad    l_OBJC_CLASS_NAME_.50
    .quad    l_OBJC_$_PROP_LIST_DJIWaypointConfigViewController

    .section    __DATA,__objc_classlist,regular,no_dead_strip
    .p2align    3               ; @"OBJC_LABEL_CLASS_$"
l_OBJC_LABEL_CLASS_$:
    .quad    _OBJC_CLASS_$_DJIWaypointConfigViewController

    .linker_option "-framework", "UIKit"
    .linker_option "-framework", "FileProvider"
    .linker_option "-framework", "UserNotifications"
    .linker_option "-framework", "CoreText"
    .linker_option "-framework", "QuartzCore"
    .linker_option "-framework", "CoreImage"
    .linker_option "-framework", "ImageIO"
    .linker_option "-framework", "CoreVideo"
    .linker_option "-framework", "OpenGLES"
    .linker_option "-framework", "Metal"
    .linker_option "-framework", "IOSurface"
    .linker_option "-framework", "CoreGraphics"
    .linker_option "-framework", "Foundation"
    .linker_option "-framework", "CFNetwork"
    .linker_option "-framework", "Security"
    .linker_option "-framework", "CoreFoundation"
    .section    __DATA,__objc_imageinfo,regular,no_dead_strip
L_OBJC_IMAGE_INFO:
    .long    0
    .long    64

    .section    __DWARF,__debug_gnu_pubn,regular,debug
.set Lset50, LpubNames_end0-LpubNames_begin0 ; Length of Public Names Info
    .long    Lset50
LpubNames_begin0:
    .short    2                       ; DWARF Version
.set Lset51, Lcu_begin0-Lsection_info   ; Offset of Compilation Unit Info
    .long    Lset51
    .long    1592                    ; Compilation Unit Length
    .long    1301                    ; DIE offset
    .byte    176                     ; Attributes: FUNCTION, STATIC
    .asciz    "-[DJIWaypointConfigViewController setHeadingSegmentedControl:]" ; External Name
    .long    905                     ; DIE offset
    .byte    176                     ; Attributes: FUNCTION, STATIC
    .asciz    "-[DJIWaypointConfigViewController setAutoFlightSpeedTextField:]" ; External Name
    .long    1503                    ; DIE offset
    .byte    176                     ; Attributes: FUNCTION, STATIC
    .asciz    "-[DJIWaypointConfigViewController .cxx_destruct]" ; External Name
    .long    235                     ; DIE offset
    .byte    0                       ; Attributes: NONE, EXTERNAL
    .asciz    "UIKit"                 ; External Name
    .long    272                     ; DIE offset
    .byte    0                       ; Attributes: NONE, EXTERNAL
    .asciz    "UITextField"           ; External Name
    .long    1107                    ; DIE offset
    .byte    176                     ; Attributes: FUNCTION, STATIC
    .asciz    "-[DJIWaypointConfigViewController actionSegmentedControl]" ; External Name
    .long    640                     ; DIE offset
    .byte    176                     ; Attributes: FUNCTION, STATIC
    .asciz    "-[DJIWaypointConfigViewController finishBtnAction:]" ; External Name
    .long    975                     ; DIE offset
    .byte    176                     ; Attributes: FUNCTION, STATIC
    .asciz    "-[DJIWaypointConfigViewController maxFlightSpeedTextField]" ; External Name
    .long    1169                    ; DIE offset
    .byte    176                     ; Attributes: FUNCTION, STATIC
    .asciz    "-[DJIWaypointConfigViewController setActionSegmentedControl:]" ; External Name
    .long    569                     ; DIE offset
    .byte    176                     ; Attributes: FUNCTION, STATIC
    .asciz    "-[DJIWaypointConfigViewController cancelBtnAction:]" ; External Name
    .long    455                     ; DIE offset
    .byte    176                     ; Attributes: FUNCTION, STATIC
    .asciz    "-[DJIWaypointConfigViewController didReceiveMemoryWarning]" ; External Name
    .long    1037                    ; DIE offset
    .byte    176                     ; Attributes: FUNCTION, STATIC
    .asciz    "-[DJIWaypointConfigViewController setMaxFlightSpeedTextField:]" ; External Name
    .long    711                     ; DIE offset
    .byte    176                     ; Attributes: FUNCTION, STATIC
    .asciz    "-[DJIWaypointConfigViewController altitudeTextField]" ; External Name
    .long    1433                    ; DIE offset
    .byte    176                     ; Attributes: FUNCTION, STATIC
    .asciz    "-[DJIWaypointConfigViewController setDelegate:]" ; External Name
    .long    1371                    ; DIE offset
    .byte    176                     ; Attributes: FUNCTION, STATIC
    .asciz    "-[DJIWaypointConfigViewController delegate]" ; External Name
    .long    374                     ; DIE offset
    .byte    0                       ; Attributes: NONE, EXTERNAL
    .asciz    "Foundation"            ; External Name
    .long    398                     ; DIE offset
    .byte    176                     ; Attributes: FUNCTION, STATIC
    .asciz    "-[DJIWaypointConfigViewController viewDidLoad]" ; External Name
    .long    1239                    ; DIE offset
    .byte    176                     ; Attributes: FUNCTION, STATIC
    .asciz    "-[DJIWaypointConfigViewController headingSegmentedControl]" ; External Name
    .long    773                     ; DIE offset
    .byte    176                     ; Attributes: FUNCTION, STATIC
    .asciz    "-[DJIWaypointConfigViewController setAltitudeTextField:]" ; External Name
    .long    292                     ; DIE offset
    .byte    0                       ; Attributes: NONE, EXTERNAL
    .asciz    "UISegmentedControl"    ; External Name
    .long    843                     ; DIE offset
    .byte    176                     ; Attributes: FUNCTION, STATIC
    .asciz    "-[DJIWaypointConfigViewController autoFlightSpeedTextField]" ; External Name
    .long    252                     ; DIE offset
    .byte    0                       ; Attributes: NONE, EXTERNAL
    .asciz    "UIViewController"      ; External Name
    .long    512                     ; DIE offset
    .byte    176                     ; Attributes: FUNCTION, STATIC
    .asciz    "-[DJIWaypointConfigViewController initUI]" ; External Name
    .long    0                       ; End Mark
LpubNames_end0:
    .section    __DWARF,__debug_gnu_pubt,regular,debug
.set Lset52, LpubTypes_end0-LpubTypes_begin0 ; Length of Public Types Info
    .long    Lset52
LpubTypes_begin0:
    .short    2                       ; DWARF Version
.set Lset53, Lcu_begin0-Lsection_info   ; Offset of Compilation Unit Info
    .long    Lset53
    .long    1592                    ; Compilation Unit Length
    .long    337                     ; DIE offset
    .byte    144                     ; Attributes: TYPE, STATIC
    .asciz    "objc_object"           ; External Name
    .long    1571                    ; DIE offset
    .byte    144                     ; Attributes: TYPE, STATIC
    .asciz    "SEL"                   ; External Name
    .long    48                      ; DIE offset
    .byte    144                     ; Attributes: TYPE, STATIC
    .asciz    "DJIWaypointConfigViewController" ; External Name
    .long    323                     ; DIE offset
    .byte    144                     ; Attributes: TYPE, STATIC
    .asciz    "id"                    ; External Name
    .long    0                       ; End Mark
LpubTypes_end0:

.subsections_via_symbols